target datalayout = "e-m:e-p270:32:32-p271:32:32-p272:64:64-i64:64-i128:128-f80:128-n8:16:32:64-S128"
target triple = "x86_64-unknown-linux-gnu"

%"class.folly::SocketAddress" = type <{ %"union.folly::SocketAddress::AddrStorage", i16, i8, [5 x i8] }>
%"union.folly::SocketAddress::AddrStorage" = type { %"struct.folly::SocketAddress::ExternalUnixAddr", [8 x i8] }
%"struct.folly::SocketAddress::ExternalUnixAddr" = type { ptr, i32 }
%"struct.google::SiteFlag" = type { ptr, ptr, i64, ptr }
%"class.std::__shared_count" = type { ptr }
%"class.wangle::Acceptor" = type { %"class.folly::AsyncServerSocket::AcceptCallback", %"class.wangle::ConnectionManager::Callback", %"class.folly::AsyncUDPServerSocket::Callback", ptr, %"struct.wangle::ServerSocketConfig", %"class.std::map", %"class.std::shared_ptr.56", %"class.wangle::SecurityProtocolContextManager", %"class.wangle::TLSPlaintextPeekingCallback", %"class.wangle::DefaultToSSLPeekingCallback", %"class.wangle::DefaultToFizzPeekingCallback", %"class.std::unique_ptr", %"class.std::shared_ptr.75", %"struct.wangle::TLSTicketKeySeeds", %"class.std::shared_ptr.78", i32, i64, i8, %"class.std::chrono::duration", %"class.wangle::Acceptor::AcceptObserverList" }
%"class.folly::AsyncServerSocket::AcceptCallback" = type { ptr }
%"class.wangle::ConnectionManager::Callback" = type { ptr }
%"class.folly::AsyncUDPServerSocket::Callback" = type { ptr }
%"struct.wangle::ServerSocketConfig" = type { %"class.std::__cxx11::basic_string", i32, i32, %"class.std::chrono::duration", %"class.std::chrono::duration", %"class.std::chrono::duration", %"class.folly::SocketAddress", %"struct.wangle::SSLCacheOptions", i8, %"struct.wangle::TLSTicketKeySeeds", %"class.std::vector.6", %"class.std::vector.11", i8, i32, i8, i8, i32, i32, i8, %"struct.wangle::FizzConfig", i8, %"class.std::unordered_map", %"class.std::map" }
%"class.std::__cxx11::basic_string" = type { %"struct.std::__cxx11::basic_string<char>::_Alloc_hider", i64, %union.anon.1 }
%"struct.std::__cxx11::basic_string<char>::_Alloc_hider" = type { ptr }
%union.anon.1 = type { i64, [8 x i8] }
%"struct.wangle::SSLCacheOptions" = type { %"class.std::chrono::duration.2", i64, i64, %"class.std::chrono::duration.2" }
%"class.std::chrono::duration.2" = type { i64 }
%"class.std::vector.6" = type { %"struct.std::_Vector_base.7" }
%"struct.std::_Vector_base.7" = type { %"struct.std::_Vector_base<wangle::SSLContextConfig, std::allocator<wangle::SSLContextConfig>>::_Vector_impl" }
%"struct.std::_Vector_base<wangle::SSLContextConfig, std::allocator<wangle::SSLContextConfig>>::_Vector_impl" = type { %"struct.std::_Vector_base<wangle::SSLContextConfig, std::allocator<wangle::SSLContextConfig>>::_Vector_impl_data" }
%"struct.std::_Vector_base<wangle::SSLContextConfig, std::allocator<wangle::SSLContextConfig>>::_Vector_impl_data" = type { ptr, ptr, ptr }
%"class.std::vector.11" = type { %"struct.std::_Vector_base.12" }
%"struct.std::_Vector_base.12" = type { %"struct.std::_Vector_base<wangle::SNIConfig, std::allocator<wangle::SNIConfig>>::_Vector_impl" }
%"struct.std::_Vector_base<wangle::SNIConfig, std::allocator<wangle::SNIConfig>>::_Vector_impl" = type { %"struct.std::_Vector_base<wangle::SNIConfig, std::allocator<wangle::SNIConfig>>::_Vector_impl_data" }
%"struct.std::_Vector_base<wangle::SNIConfig, std::allocator<wangle::SNIConfig>>::_Vector_impl_data" = type { ptr, ptr, ptr }
%"struct.wangle::FizzConfig" = type { i8, %"class.std::vector.16", %"class.std::vector.21", %"class.std::vector.26", %"class.std::vector.31", %"class.std::vector.36", i8, i8, i8, i8, i8, i8, %"class.folly::Optional", %"class.folly::Optional", %"class.std::vector.42", %"struct.fizz::AsyncFizzBase::TransportOptions" }
%"class.std::vector.16" = type { %"struct.std::_Vector_base.17" }
%"struct.std::_Vector_base.17" = type { %"struct.std::_Vector_base<fizz::ProtocolVersion, std::allocator<fizz::ProtocolVersion>>::_Vector_impl" }
%"struct.std::_Vector_base<fizz::ProtocolVersion, std::allocator<fizz::ProtocolVersion>>::_Vector_impl" = type { %"struct.std::_Vector_base<fizz::ProtocolVersion, std::allocator<fizz::ProtocolVersion>>::_Vector_impl_data" }
%"struct.std::_Vector_base<fizz::ProtocolVersion, std::allocator<fizz::ProtocolVersion>>::_Vector_impl_data" = type { ptr, ptr, ptr }
%"class.std::vector.21" = type { %"struct.std::_Vector_base.22" }
%"struct.std::_Vector_base.22" = type { %"struct.std::_Vector_base<std::vector<fizz::CipherSuite>, std::allocator<std::vector<fizz::CipherSuite>>>::_Vector_impl" }
%"struct.std::_Vector_base<std::vector<fizz::CipherSuite>, std::allocator<std::vector<fizz::CipherSuite>>>::_Vector_impl" = type { %"struct.std::_Vector_base<std::vector<fizz::CipherSuite>, std::allocator<std::vector<fizz::CipherSuite>>>::_Vector_impl_data" }
%"struct.std::_Vector_base<std::vector<fizz::CipherSuite>, std::allocator<std::vector<fizz::CipherSuite>>>::_Vector_impl_data" = type { ptr, ptr, ptr }
%"class.std::vector.26" = type { %"struct.std::_Vector_base.27" }
%"struct.std::_Vector_base.27" = type { %"struct.std::_Vector_base<fizz::SignatureScheme, std::allocator<fizz::SignatureScheme>>::_Vector_impl" }
%"struct.std::_Vector_base<fizz::SignatureScheme, std::allocator<fizz::SignatureScheme>>::_Vector_impl" = type { %"struct.std::_Vector_base<fizz::SignatureScheme, std::allocator<fizz::SignatureScheme>>::_Vector_impl_data" }
%"struct.std::_Vector_base<fizz::SignatureScheme, std::allocator<fizz::SignatureScheme>>::_Vector_impl_data" = type { ptr, ptr, ptr }
%"class.std::vector.31" = type { %"struct.std::_Vector_base.32" }
%"struct.std::_Vector_base.32" = type { %"struct.std::_Vector_base<fizz::NamedGroup, std::allocator<fizz::NamedGroup>>::_Vector_impl" }
%"struct.std::_Vector_base<fizz::NamedGroup, std::allocator<fizz::NamedGroup>>::_Vector_impl" = type { %"struct.std::_Vector_base<fizz::NamedGroup, std::allocator<fizz::NamedGroup>>::_Vector_impl_data" }
%"struct.std::_Vector_base<fizz::NamedGroup, std::allocator<fizz::NamedGroup>>::_Vector_impl_data" = type { ptr, ptr, ptr }
%"class.std::vector.36" = type { %"struct.std::_Vector_base.37" }
%"struct.std::_Vector_base.37" = type { %"struct.std::_Vector_base<fizz::PskKeyExchangeMode, std::allocator<fizz::PskKeyExchangeMode>>::_Vector_impl" }
%"struct.std::_Vector_base<fizz::PskKeyExchangeMode, std::allocator<fizz::PskKeyExchangeMode>>::_Vector_impl" = type { %"struct.std::_Vector_base<fizz::PskKeyExchangeMode, std::allocator<fizz::PskKeyExchangeMode>>::_Vector_impl_data" }
%"struct.std::_Vector_base<fizz::PskKeyExchangeMode, std::allocator<fizz::PskKeyExchangeMode>>::_Vector_impl_data" = type { ptr, ptr, ptr }
%"class.folly::Optional" = type { %"struct.folly::Optional<unsigned short>::StorageTriviallyDestructible" }
%"struct.folly::Optional<unsigned short>::StorageTriviallyDestructible" = type <{ %union.anon.41, i8, i8 }>
%union.anon.41 = type { i16 }
%"class.std::vector.42" = type { %"struct.std::_Vector_base.43" }
%"struct.std::_Vector_base.43" = type { %"struct.std::_Vector_base<fizz::CertificateCompressionAlgorithm, std::allocator<fizz::CertificateCompressionAlgorithm>>::_Vector_impl" }
%"struct.std::_Vector_base<fizz::CertificateCompressionAlgorithm, std::allocator<fizz::CertificateCompressionAlgorithm>>::_Vector_impl" = type { %"struct.std::_Vector_base<fizz::CertificateCompressionAlgorithm, std::allocator<fizz::CertificateCompressionAlgorithm>>::_Vector_impl_data" }
%"struct.std::_Vector_base<fizz::CertificateCompressionAlgorithm, std::allocator<fizz::CertificateCompressionAlgorithm>>::_Vector_impl_data" = type { ptr, ptr, ptr }
%"struct.fizz::AsyncFizzBase::TransportOptions" = type { i8, i8, %"class.std::shared_ptr", i64, i64, ptr }
%"class.std::shared_ptr" = type { %"class.std::__shared_ptr" }
%"class.std::__shared_ptr" = type { ptr, %"class.std::__shared_count" }
%"class.std::unordered_map" = type { %"class.std::_Hashtable" }
%"class.std::_Hashtable" = type { ptr, i64, %"struct.std::__detail::_Hash_node_base", i64, %"struct.std::__detail::_Prime_rehash_policy", ptr }
%"struct.std::__detail::_Hash_node_base" = type { ptr }
%"struct.std::__detail::_Prime_rehash_policy" = type { float, i64 }
%"class.std::map" = type { %"class.std::_Rb_tree" }
%"class.std::_Rb_tree" = type { %"struct.std::_Rb_tree<folly::SocketOptionKey, std::pair<const folly::SocketOptionKey, int>, std::_Select1st<std::pair<const folly::SocketOptionKey, int>>, std::less<folly::SocketOptionKey>>::_Rb_tree_impl" }
%"struct.std::_Rb_tree<folly::SocketOptionKey, std::pair<const folly::SocketOptionKey, int>, std::_Select1st<std::pair<const folly::SocketOptionKey, int>>, std::less<folly::SocketOptionKey>>::_Rb_tree_impl" = type { %"struct.std::_Rb_tree_key_compare", %"struct.std::_Rb_tree_header" }
%"struct.std::_Rb_tree_key_compare" = type { %"struct.std::less" }
%"struct.std::less" = type { i8 }
%"struct.std::_Rb_tree_header" = type { %"struct.std::_Rb_tree_node_base", i64 }
%"struct.std::_Rb_tree_node_base" = type { i32, ptr, ptr, ptr }
%"class.std::shared_ptr.56" = type { %"class.std::__shared_ptr.57" }
%"class.std::__shared_ptr.57" = type { ptr, %"class.std::__shared_count" }
%"class.wangle::SecurityProtocolContextManager" = type { %"class.std::vector.59", i64 }
%"class.std::vector.59" = type { %"struct.std::_Vector_base.60" }
%"struct.std::_Vector_base.60" = type { %"struct.std::_Vector_base<wangle::PeekingAcceptorHandshakeHelper::PeekCallback *, std::allocator<wangle::PeekingAcceptorHandshakeHelper::PeekCallback *>>::_Vector_impl" }
%"struct.std::_Vector_base<wangle::PeekingAcceptorHandshakeHelper::PeekCallback *, std::allocator<wangle::PeekingAcceptorHandshakeHelper::PeekCallback *>>::_Vector_impl" = type { %"struct.std::_Vector_base<wangle::PeekingAcceptorHandshakeHelper::PeekCallback *, std::allocator<wangle::PeekingAcceptorHandshakeHelper::PeekCallback *>>::_Vector_impl_data" }
%"struct.std::_Vector_base<wangle::PeekingAcceptorHandshakeHelper::PeekCallback *, std::allocator<wangle::PeekingAcceptorHandshakeHelper::PeekCallback *>>::_Vector_impl_data" = type { ptr, ptr, ptr }
%"class.wangle::TLSPlaintextPeekingCallback" = type { %"class.wangle::PeekingAcceptorHandshakeHelper::PeekCallback" }
%"class.wangle::PeekingAcceptorHandshakeHelper::PeekCallback" = type { ptr, i64 }
%"class.wangle::DefaultToSSLPeekingCallback" = type { %"class.wangle::PeekingAcceptorHandshakeHelper::PeekCallback" }
%"class.wangle::DefaultToFizzPeekingCallback" = type { %"class.wangle::PeekingAcceptorHandshakeHelper::PeekCallback", %"class.std::shared_ptr.64", %"class.std::shared_ptr.67", %"class.wangle::FizzHandshakeOptions", %"struct.fizz::AsyncFizzBase::TransportOptions" }
%"class.std::shared_ptr.64" = type { %"class.std::__shared_ptr.65" }
%"class.std::__shared_ptr.65" = type { ptr, %"class.std::__shared_count" }
%"class.std::shared_ptr.67" = type { %"class.std::__shared_ptr.68" }
%"class.std::__shared_ptr.68" = type { ptr, %"class.std::__shared_count" }
%"class.wangle::FizzHandshakeOptions" = type <{ %"class.std::shared_ptr.70", ptr, i8, i8, [6 x i8] }>
%"class.std::shared_ptr.70" = type { %"class.std::__shared_ptr.71" }
%"class.std::__shared_ptr.71" = type { ptr, %"class.std::__shared_count" }
%"class.std::unique_ptr" = type { %"struct.std::__uniq_ptr_data" }
%"struct.std::__uniq_ptr_data" = type { %"class.std::__uniq_ptr_impl" }
%"class.std::__uniq_ptr_impl" = type { %"class.std::tuple" }
%"class.std::tuple" = type { %"struct.std::_Tuple_impl" }
%"struct.std::_Tuple_impl" = type { %"struct.std::_Head_base.74" }
%"struct.std::_Head_base.74" = type { ptr }
%"class.std::shared_ptr.75" = type { %"class.std::__shared_ptr.76" }
%"class.std::__shared_ptr.76" = type { ptr, %"class.std::__shared_count" }
%"struct.wangle::TLSTicketKeySeeds" = type { %"class.std::vector", %"class.std::vector", %"class.std::vector" }
%"class.std::vector" = type { %"struct.std::_Vector_base" }
%"struct.std::_Vector_base" = type { %"struct.std::_Vector_base<std::__cxx11::basic_string<char>, std::allocator<std::__cxx11::basic_string<char>>>::_Vector_impl" }
%"struct.std::_Vector_base<std::__cxx11::basic_string<char>, std::allocator<std::__cxx11::basic_string<char>>>::_Vector_impl" = type { %"struct.std::_Vector_base<std::__cxx11::basic_string<char>, std::allocator<std::__cxx11::basic_string<char>>>::_Vector_impl_data" }
%"struct.std::_Vector_base<std::__cxx11::basic_string<char>, std::allocator<std::__cxx11::basic_string<char>>>::_Vector_impl_data" = type { ptr, ptr, ptr }
%"class.std::shared_ptr.78" = type { %"class.std::__shared_ptr.79" }
%"class.std::__shared_ptr.79" = type { ptr, %"class.std::__shared_count" }
%"class.std::chrono::duration" = type { i64 }
%"class.wangle::Acceptor::AcceptObserverList" = type { ptr, %"class.std::vector.81" }
%"class.std::vector.81" = type { %"struct.std::_Vector_base.82" }
%"struct.std::_Vector_base.82" = type { %"struct.std::_Vector_base<wangle::AcceptObserver *, std::allocator<wangle::AcceptObserver *>>::_Vector_impl" }
%"struct.std::_Vector_base<wangle::AcceptObserver *, std::allocator<wangle::AcceptObserver *>>::_Vector_impl" = type { %"struct.std::_Vector_base<wangle::AcceptObserver *, std::allocator<wangle::AcceptObserver *>>::_Vector_impl_data" }
%"struct.std::_Vector_base<wangle::AcceptObserver *, std::allocator<wangle::AcceptObserver *>>::_Vector_impl_data" = type { ptr, ptr, ptr }
%"class.google::LogMessageVoidify" = type { i8 }
%"class.google::LogMessage" = type { ptr, ptr, %"struct.google::LogMessageTime" }
%"struct.google::LogMessageTime" = type { %struct.tm, i64, i32, i64 }
%struct.tm = type { i32, i32, i32, i32, i32, i32, i32, i32, i32, i64, ptr }

@_ZN3fLI7FLAGS_vE = external global i32, align 4
@.str.4 = private unnamed_addr constant [145 x i8] c"generated/home/dtcxzyw/WorkSpace/Projects/compilers/llvm-opt-benchmark/bench/proxygen/proxygen/proxygen/lib/http/session/HTTPSessionAcceptor.cpp\00", align 1
@_ZZN8proxygen19HTTPSessionAcceptor19dropIdleConnectionsEmE8vlocal__ = internal global %"struct.google::SiteFlag" zeroinitializer, align 8
@.str.10 = private unnamed_addr constant [44 x i8] c"attempt to drop downstream idle connections\00", align 1

; Function Attrs: mustprogress nounwind uwtable
define linkonce_odr noundef nonnull align 8 dereferenceable(8) ptr @_ZNSt10_Head_baseILm0EPN6wangle17ConnectionManagerELb0EE7_M_headERKS3_(ptr noundef nonnull align 8 dereferenceable(8) %__b) #4 comdat align 2 {
entry:
  %__b.addr = alloca ptr, align 8
  store ptr %__b, ptr %__b.addr, align 8
  %0 = load ptr, ptr %__b.addr, align 8
  %_M_head_impl = getelementptr inbounds %"struct.std::_Head_base.74", ptr %0, i32 0, i32 0
  ret ptr %_M_head_impl
}

; Function Attrs: mustprogress nounwind uwtable
define linkonce_odr noundef nonnull align 8 dereferenceable(8) ptr @_ZNSt11_Tuple_implILm0EJPN6wangle17ConnectionManagerEN5folly18DelayedDestruction10DestructorEEE7_M_headERKS6_(ptr noundef nonnull align 8 dereferenceable(8) %__t) #4 comdat align 2 {
entry:
  %__t.addr = alloca ptr, align 8
  store ptr %__t, ptr %__t.addr, align 8
  %0 = load ptr, ptr %__t.addr, align 8
  %call = call noundef nonnull align 8 dereferenceable(8) ptr @_ZNSt10_Head_baseILm0EPN6wangle17ConnectionManagerELb0EE7_M_headERKS3_(ptr noundef nonnull align 8 dereferenceable(8) %0) #3
  ret ptr %call
}

; Function Attrs: mustprogress nounwind uwtable
define linkonce_odr noundef nonnull align 8 dereferenceable(8) ptr @_ZSt12__get_helperILm0EPN6wangle17ConnectionManagerEJN5folly18DelayedDestruction10DestructorEEERKT0_RKSt11_Tuple_implIXT_EJS6_DpT1_EE(ptr noundef nonnull align 8 dereferenceable(8) %__t) #4 comdat {
entry:
  %__t.addr = alloca ptr, align 8
  store ptr %__t, ptr %__t.addr, align 8
  %0 = load ptr, ptr %__t.addr, align 8
  %call = call noundef nonnull align 8 dereferenceable(8) ptr @_ZNSt11_Tuple_implILm0EJPN6wangle17ConnectionManagerEN5folly18DelayedDestruction10DestructorEEE7_M_headERKS6_(ptr noundef nonnull align 8 dereferenceable(8) %0) #3
  ret ptr %call
}

; Function Attrs: mustprogress nounwind uwtable
define linkonce_odr noundef nonnull align 8 dereferenceable(8) ptr @_ZSt3getILm0EJPN6wangle17ConnectionManagerEN5folly18DelayedDestruction10DestructorEEERKNSt13tuple_elementIXT_ESt5tupleIJDpT0_EEE4typeERKSA_(ptr noundef nonnull align 8 dereferenceable(8) %__t) #4 comdat {
entry:
  %__t.addr = alloca ptr, align 8
  store ptr %__t, ptr %__t.addr, align 8
  %0 = load ptr, ptr %__t.addr, align 8
  %call = call noundef nonnull align 8 dereferenceable(8) ptr @_ZSt12__get_helperILm0EPN6wangle17ConnectionManagerEJN5folly18DelayedDestruction10DestructorEEERKT0_RKSt11_Tuple_implIXT_EJS6_DpT1_EE(ptr noundef nonnull align 8 dereferenceable(8) %0) #3
  ret ptr %call
}

; Function Attrs: mustprogress nounwind uwtable
define linkonce_odr noundef ptr @_ZNKSt15__uniq_ptr_implIN6wangle17ConnectionManagerEN5folly18DelayedDestruction10DestructorEE6_M_ptrEv(ptr noundef nonnull align 8 dereferenceable(8) %this) #4 comdat align 2 {
entry:
  %this.addr = alloca ptr, align 8
  store ptr %this, ptr %this.addr, align 8
  %this1 = load ptr, ptr %this.addr, align 8
  %_M_t = getelementptr inbounds %"class.std::__uniq_ptr_impl", ptr %this1, i32 0, i32 0
  %call = call noundef nonnull align 8 dereferenceable(8) ptr @_ZSt3getILm0EJPN6wangle17ConnectionManagerEN5folly18DelayedDestruction10DestructorEEERKNSt13tuple_elementIXT_ESt5tupleIJDpT0_EEE4typeERKSA_(ptr noundef nonnull align 8 dereferenceable(8) %_M_t) #3
  %0 = load ptr, ptr %call, align 8
  ret ptr %0
}

; Function Attrs: mustprogress nounwind uwtable
define linkonce_odr noundef ptr @_ZNKSt10unique_ptrIN6wangle17ConnectionManagerEN5folly18DelayedDestruction10DestructorEE3getEv(ptr noundef nonnull align 8 dereferenceable(8) %this) #4 comdat align 2 {
entry:
  %this.addr = alloca ptr, align 8
  store ptr %this, ptr %this.addr, align 8
  %this1 = load ptr, ptr %this.addr, align 8
  %_M_t = getelementptr inbounds %"class.std::unique_ptr", ptr %this1, i32 0, i32 0
  %call = call noundef ptr @_ZNKSt15__uniq_ptr_implIN6wangle17ConnectionManagerEN5folly18DelayedDestruction10DestructorEE6_M_ptrEv(ptr noundef nonnull align 8 dereferenceable(8) %_M_t) #3
  ret ptr %call
}

; Function Attrs: mustprogress nounwind uwtable
define linkonce_odr noundef ptr @_ZNKSt10unique_ptrIN6wangle17ConnectionManagerEN5folly18DelayedDestruction10DestructorEEptEv(ptr noundef nonnull align 8 dereferenceable(8) %this) #4 comdat align 2 {
entry:
  %this.addr = alloca ptr, align 8
  store ptr %this, ptr %this.addr, align 8
  %this1 = load ptr, ptr %this.addr, align 8
  %call = call noundef ptr @_ZNKSt10unique_ptrIN6wangle17ConnectionManagerEN5folly18DelayedDestruction10DestructorEE3getEv(ptr noundef nonnull align 8 dereferenceable(8) %this1) #3
  ret ptr %call
}

; Function Attrs: mustprogress nounwind uwtable
define linkonce_odr void @_ZN6google17LogMessageVoidifyanERSo(ptr noundef nonnull align 1 dereferenceable(1) %this, ptr noundef nonnull align 8 dereferenceable(8) %0) #4 comdat align 2 {
entry:
  %this.addr = alloca ptr, align 8
  %.addr = alloca ptr, align 8
  store ptr %this, ptr %this.addr, align 8
  store ptr %0, ptr %.addr, align 8
  ret void
}

; Function Attrs: mustprogress nounwind uwtable
define linkonce_odr void @_ZN6google17LogMessageVoidifyC2Ev(ptr noundef nonnull align 1 dereferenceable(1) %this) unnamed_addr #4 comdat align 2 {
entry:
  %this.addr = alloca ptr, align 8
  store ptr %this, ptr %this.addr, align 8
  ret void
}

; Function Attrs: mustprogress uwtable
define noundef i64 @_ZN8proxygen19HTTPSessionAcceptor19dropIdleConnectionsEm(ptr noundef nonnull align 8 dereferenceable(1928) %this, i64 noundef %num) unnamed_addr #5 align 2 personality ptr @__gxx_personality_v0 {
entry:
  %this.addr = alloca ptr, align 8
  %num.addr = alloca i64, align 8
  %verbose_level__ = alloca i32, align 4
  %tmp = alloca i8, align 1
  %ref.tmp = alloca %"class.google::LogMessageVoidify", align 1
  %ref.tmp5 = alloca %"class.google::LogMessage", align 8
  %cleanup.cond = alloca i1, align 1
  %exn.slot = alloca ptr, align 8
  %ehselector.slot = alloca i32, align 4
  store ptr %this, ptr %this.addr, align 8
  store i64 %num, ptr %num.addr, align 8
  %this1 = load ptr, ptr %this.addr, align 8
  store i32 6, ptr %verbose_level__, align 4
  %0 = load ptr, ptr @_ZZN8proxygen19HTTPSessionAcceptor19dropIdleConnectionsEmE8vlocal__, align 8
  %cmp = icmp eq ptr %0, null
  store i1 false, ptr %cleanup.cond, align 1
  br i1 %cmp, label %cond.true, label %cond.false

cond.true:                                        ; preds = %entry
  %1 = load i32, ptr %verbose_level__, align 4
  %call = call noundef zeroext i1 @_ZN6google11InitVLOG3__EPNS_8SiteFlagEPiPKci(ptr noundef @_ZZN8proxygen19HTTPSessionAcceptor19dropIdleConnectionsEmE8vlocal__, ptr noundef @_ZN3fLI7FLAGS_vE, ptr noundef @.str.4, i32 noundef %1)
  br label %cond.end

cond.false:                                       ; preds = %entry
  %2 = load ptr, ptr @_ZZN8proxygen19HTTPSessionAcceptor19dropIdleConnectionsEmE8vlocal__, align 8
  %3 = load i32, ptr %2, align 4
  %4 = load i32, ptr %verbose_level__, align 4
  %cmp2 = icmp sge i32 %3, %4
  br label %cond.end

cond.end:                                         ; preds = %cond.false, %cond.true
  %cond = phi i1 [ %call, %cond.true ], [ %cmp2, %cond.false ]
  %frombool = zext i1 %cond to i8
  store i8 %frombool, ptr %tmp, align 1
  %5 = load i8, ptr %tmp, align 1
  %tobool = trunc i8 %5 to i1
  br i1 %tobool, label %cond.false4, label %cond.true3

cond.true3:                                       ; preds = %cond.end
  br label %cond.end10

cond.false4:                                      ; preds = %cond.end
  call void @_ZN6google17LogMessageVoidifyC2Ev(ptr noundef nonnull align 1 dereferenceable(1) %ref.tmp)
  call void @_ZN6google10LogMessageC1EPKci(ptr noundef nonnull align 8 dereferenceable(96) %ref.tmp5, ptr noundef @.str.4, i32 noundef 129)
  store i1 true, ptr %cleanup.cond, align 1
  %call6 = invoke noundef nonnull align 8 dereferenceable(8) ptr @_ZN6google10LogMessage6streamEv(ptr noundef nonnull align 8 dereferenceable(96) %ref.tmp5)
          to label %invoke.cont unwind label %lpad

invoke.cont:                                      ; preds = %cond.false4
  %call8 = invoke noundef nonnull align 8 dereferenceable(8) ptr @_ZStlsISt11char_traitsIcEERSt13basic_ostreamIcT_ES5_PKc(ptr noundef nonnull align 8 dereferenceable(8) %call6, ptr noundef @.str.10)
          to label %invoke.cont7 unwind label %lpad

invoke.cont7:                                     ; preds = %invoke.cont
  invoke void @_ZN6google17LogMessageVoidifyanERSo(ptr noundef nonnull align 1 dereferenceable(1) %ref.tmp, ptr noundef nonnull align 8 dereferenceable(8) %call8)
          to label %invoke.cont9 unwind label %lpad

invoke.cont9:                                     ; preds = %invoke.cont7
  br label %cond.end10

cond.end10:                                       ; preds = %invoke.cont9, %cond.true3
  %cleanup.is_active = load i1, ptr %cleanup.cond, align 1
  br i1 %cleanup.is_active, label %cleanup.action, label %cleanup.done

cleanup.action:                                   ; preds = %cond.end10
  call void @_ZN6google10LogMessageD1Ev(ptr noundef nonnull align 8 dereferenceable(96) %ref.tmp5) #3
  br label %cleanup.done

cleanup.done:                                     ; preds = %cleanup.action, %cond.end10
  %downstreamConnectionManager_ = getelementptr inbounds %"class.wangle::Acceptor", ptr %this1, i32 0, i32 11
  %call14 = call noundef ptr @_ZNKSt10unique_ptrIN6wangle17ConnectionManagerEN5folly18DelayedDestruction10DestructorEEptEv(ptr noundef nonnull align 8 dereferenceable(8) %downstreamConnectionManager_) #3
  %6 = load i64, ptr %num.addr, align 8
  %call15 = call noundef i64 @_ZN6wangle17ConnectionManager19dropIdleConnectionsEm(ptr noundef nonnull align 8 dereferenceable(376) %call14, i64 noundef %6)
  ret i64 %call15

lpad:                                             ; preds = %invoke.cont7, %invoke.cont, %cond.false4
  %7 = landingpad { ptr, i32 }
          cleanup
  %8 = extractvalue { ptr, i32 } %7, 0
  store ptr %8, ptr %exn.slot, align 8
  %9 = extractvalue { ptr, i32 } %7, 1
  store i32 %9, ptr %ehselector.slot, align 4
  %cleanup.is_active11 = load i1, ptr %cleanup.cond, align 1
  br i1 %cleanup.is_active11, label %cleanup.action12, label %cleanup.done13

cleanup.action12:                                 ; preds = %lpad
  call void @_ZN6google10LogMessageD1Ev(ptr noundef nonnull align 8 dereferenceable(96) %ref.tmp5) #3
  br label %cleanup.done13

cleanup.done13:                                   ; preds = %cleanup.action12, %lpad
  br label %eh.resume

eh.resume:                                        ; preds = %cleanup.done13
  %exn = load ptr, ptr %exn.slot, align 8
  %sel = load i32, ptr %ehselector.slot, align 4
  %lpad.val = insertvalue { ptr, i32 } poison, ptr %exn, 0
  %lpad.val16 = insertvalue { ptr, i32 } %lpad.val, i32 %sel, 1
  resume { ptr, i32 } %lpad.val16
}