; Function Attrs: mustprogress uwtable
define noundef i64 @_ZN8proxygen19HTTPSessionAcceptor19dropIdleConnectionsEm(ptr nocapture noundef nonnull readonly align 8 dereferenceable(1928) %this, i64 noundef %num) unnamed_addr #4 align 2 personality ptr @__gxx_personality_v0 {
entry:
  %ref.tmp5 = alloca %"class.google::LogMessage", align 8
  %0 = load ptr, ptr @_ZZN8proxygen19HTTPSessionAcceptor19dropIdleConnectionsEmE8vlocal__, align 8
  %cmp = icmp eq ptr %0, null
  br i1 %cmp, label %cond.true, label %cond.end

cond.true:                                        ; preds = %entry
  %call = tail call noundef zeroext i1 @_ZN6google11InitVLOG3__EPNS_8SiteFlagEPiPKci(ptr noundef nonnull @_ZZN8proxygen19HTTPSessionAcceptor19dropIdleConnectionsEmE8vlocal__, ptr noundef nonnull @_ZN3fLI7FLAGS_vE, ptr noundef nonnull @.str.4, i32 noundef 6)
  br i1 %call, label %cond.false4, label %cleanup.done

cond.end:                                         ; preds = %entry
  %1 = load i32, ptr %0, align 4
  %cmp2 = icmp sgt i32 %1, 5
  br i1 %cmp2, label %cond.false4, label %cleanup.done

cond.false4:                                      ; preds = %cond.true, %cond.end
  call void @_ZN6google10LogMessageC1EPKci(ptr noundef nonnull align 8 dereferenceable(96) %ref.tmp5, ptr noundef nonnull @.str.4, i32 noundef 129)
  %call6 = invoke noundef nonnull align 8 dereferenceable(8) ptr @_ZN6google10LogMessage6streamEv(ptr noundef nonnull align 8 dereferenceable(96) %ref.tmp5)
          to label %invoke.cont unwind label %lpad

invoke.cont:                                      ; preds = %cond.false4
  %call8 = invoke noundef nonnull align 8 dereferenceable(8) ptr @_ZStlsISt11char_traitsIcEERSt13basic_ostreamIcT_ES5_PKc(ptr noundef nonnull align 8 dereferenceable(8) %call6, ptr noundef nonnull @.str.10)
          to label %cleanup.action unwind label %lpad

cleanup.action:                                   ; preds = %invoke.cont
  call void @_ZN6google10LogMessageD1Ev(ptr noundef nonnull align 8 dereferenceable(96) %ref.tmp5) #24
  br label %cleanup.done

cleanup.done:                                     ; preds = %cond.true, %cond.end, %cleanup.action
  %downstreamConnectionManager_ = getelementptr inbounds i8, ptr %this, i64 896
  %2 = load ptr, ptr %downstreamConnectionManager_, align 8
  %call15 = call noundef i64 @_ZN6wangle17ConnectionManager19dropIdleConnectionsEm(ptr noundef nonnull align 8 dereferenceable(376) %2, i64 noundef %num)
  ret i64 %call15

lpad:                                             ; preds = %invoke.cont, %cond.false4
  %3 = landingpad { ptr, i32 }
          cleanup
  call void @_ZN6google10LogMessageD1Ev(ptr noundef nonnull align 8 dereferenceable(96) %ref.tmp5) #24
  resume { ptr, i32 } %3
}